target datalayout = "e-m:e-p270:32:32-p271:32:32-p272:64:64-i64:64-i128:128-f80:128-n8:16:32:64-S128"
target triple = "x86_64-pc-linux-gnu"

%"class.icu_77::Quantifier" = type { %"class.icu_77::UnicodeFunctor", %"class.icu_77::UnicodeMatcher", ptr, i32, i32 }
%"class.icu_77::UnicodeFunctor" = type { %"class.icu_77::UObject" }
%"class.icu_77::UObject" = type { ptr }
%"class.icu_77::UnicodeMatcher" = type { ptr }

; Function Attrs: mustprogress nounwind uwtable
define void @_ZN6icu_7710QuantifierD2Ev(ptr noundef nonnull align 8 dereferenceable(32) %0) unnamed_addr #0 align 2 {
  %2 = alloca ptr, align 8
  store ptr %0, ptr %2, align 8, !tbaa !23
  %3 = load ptr, ptr %2, align 8
  store ptr getelementptr inbounds inrange(-16, 88) ({ [13 x ptr], [8 x ptr] }, ptr @_ZTVN6icu_7710QuantifierE, i32 0, i32 0, i32 2), ptr %3, align 8, !tbaa !27
  %4 = getelementptr inbounds i8, ptr %3, i64 8
  store ptr getelementptr inbounds inrange(-16, 48) ({ [13 x ptr], [8 x ptr] }, ptr @_ZTVN6icu_7710QuantifierE, i32 0, i32 1, i32 2), ptr %4, align 8, !tbaa !27
  %5 = getelementptr inbounds nuw %"class.icu_77::Quantifier", ptr %3, i32 0, i32 2
  %6 = load ptr, ptr %5, align 8, !tbaa !29
  %7 = icmp eq ptr %6, null
  br i1 %7, label %12, label %8

8:                                                ; preds = %1
  %9 = load ptr, ptr %6, align 8, !tbaa !27
  %10 = getelementptr inbounds ptr, ptr %9, i64 1
  %11 = load ptr, ptr %10, align 8
  call void %11(ptr noundef nonnull align 8 dereferenceable(8) %6) #12
  br label %12

12:                                               ; preds = %8, %1
  %13 = getelementptr inbounds i8, ptr %3, i64 8
  call void @_ZN6icu_7714UnicodeMatcherD2Ev(ptr noundef nonnull align 8 dereferenceable(8) %13) #12
  call void @_ZN6icu_7714UnicodeFunctorD2Ev(ptr noundef nonnull align 8 dereferenceable(8) %3) #12
  ret void
}