; Function Attrs: mustprogress nounwind uwtable
define void @_ZN6icu_7710QuantifierD2Ev(ptr noundef nonnull align 8 dereferenceable(32) initializes((0, 16)) %0) unnamed_addr #0 align 2 {
  store ptr getelementptr inbounds nuw inrange(-16, 88) (i8, ptr @_ZTVN6icu_7710QuantifierE, i64 16), ptr %0, align 8, !tbaa !15
  %2 = getelementptr inbounds nuw i8, ptr %0, i64 8
  store ptr getelementptr inbounds nuw inrange(-16, 48) (i8, ptr @_ZTVN6icu_7710QuantifierE, i64 120), ptr %2, align 8, !tbaa !15
  %3 = getelementptr inbounds nuw i8, ptr %0, i64 16
  %4 = load ptr, ptr %3, align 8, !tbaa !17
  %5 = icmp eq ptr %4, null
  br i1 %5, label %10, label %6

6:                                                ; preds = %1
  %7 = load ptr, ptr %4, align 8, !tbaa !15
  %8 = getelementptr inbounds nuw i8, ptr %7, i64 8
  %9 = load ptr, ptr %8, align 8
  tail call void %9(ptr noundef nonnull align 8 dereferenceable(8) %4) #16
  br label %10

10:                                               ; preds = %6, %1
  tail call void @_ZN6icu_7714UnicodeMatcherD2Ev(ptr noundef nonnull align 8 dereferenceable(8) %2) #16
  tail call void @_ZN6icu_7714UnicodeFunctorD2Ev(ptr noundef nonnull align 8 dereferenceable(8) %0) #16
  ret void
}